target datalayout = "e-m:e-p270:32:32-p271:32:32-p272:64:64-i64:64-i128:128-f80:128-n8:16:32:64-S128"
target triple = "x86_64-pc-linux-gnu"

%struct._zval_struct = type { %union._zend_value, %union.anon, %union.anon.2 }
%union._zend_value = type { i64 }
%union.anon = type { i32 }
%union.anon.2 = type { i32 }
%struct._zend_executor_globals = type { %struct._zval_struct, %struct._zval_struct, [32 x ptr], ptr, ptr, %struct._zend_array, %struct._zend_array, ptr, i32, i32, ptr, ptr, ptr, ptr, ptr, ptr, i64, ptr, ptr, i32, i32, i64, i32, i32, i32, i8, i8, %struct.zend_atomic_bool_s, %struct.zend_atomic_bool_s, ptr, i64, ptr, ptr, %struct._zend_array, %struct._zend_array, i32, i8, %struct._zval_struct, %struct._zval_struct, %struct._zend_stack, %struct._zend_stack, %struct._zend_stack, ptr, i32, i32, i64, ptr, ptr, ptr, %struct._zend_objects_store, ptr, ptr, ptr, [3 x %struct._zend_op], ptr, i8, i8, i64, i32, i32, ptr, [16 x %struct._HashTableIterator], ptr, %union._zend_function, %struct._zend_op, %struct._zend_array, i64, %struct.zend_get_gc_buffer, ptr, ptr, ptr, i64, i8, i32, ptr, ptr, i64, %struct._zend_call_stack, i64, i64, [6 x ptr] }
%struct.zend_atomic_bool_s = type { i8 }
%struct._zend_stack = type { i32, i32, i32, ptr }
%struct._zend_objects_store = type { ptr, i32, i32, i32 }
%struct._HashTableIterator = type { ptr, i32, i32 }
%union._zend_function = type { %struct._zend_op_array }
%struct._zend_op_array = type { i8, [3 x i8], i32, ptr, ptr, ptr, i32, i32, ptr, ptr, ptr, ptr, i32, i32, i32, i32, ptr, ptr, ptr, ptr, ptr, i32, i32, ptr, ptr, ptr, i32, i32, i32, i32, ptr, ptr, [6 x ptr] }
%struct._zend_op = type { ptr, %union._znode_op, %union._znode_op, %union._znode_op, i32, i32, i8, i8, i8, i8 }
%union._znode_op = type { i32 }
%struct._zend_array = type { %struct._zend_refcounted_h, %union.anon.4, i32, %union.anon.6, i32, i32, i32, i32, i64, ptr }
%struct._zend_refcounted_h = type { i32, %union.anon.3 }
%union.anon.3 = type { i32 }
%union.anon.4 = type { i32 }
%union.anon.6 = type { ptr }
%struct.zend_get_gc_buffer = type { ptr, ptr, ptr }
%struct._zend_call_stack = type { ptr, i64 }
%struct._zend_execute_data = type { ptr, ptr, ptr, ptr, %struct._zval_struct, ptr, ptr, ptr, ptr }

@executor_globals = external global %struct._zend_executor_globals, align 8

; Function Attrs: nounwind uwtable
define i32 @zend_get_executed_lineno() #0 {
  %1 = alloca i32, align 4
  %2 = alloca i64, align 8
  %3 = alloca ptr, align 8
  %4 = load i64, ptr getelementptr inbounds (%struct._zend_executor_globals, ptr @executor_globals, i32 0, i32 76), align 8
  store i64 %4, ptr %2, align 8
  %5 = load i64, ptr %2, align 8
  %6 = icmp ne i64 %5, -1
  br i1 %6, label %7, label %10

7:                                                ; preds = %0
  %8 = load i64, ptr %2, align 8
  %9 = trunc i64 %8 to i32
  store i32 %9, ptr %1, align 4
  br label %85

10:                                               ; preds = %0
  %11 = load ptr, ptr getelementptr inbounds (%struct._zend_executor_globals, ptr @executor_globals, i32 0, i32 17), align 8
  store ptr %11, ptr %3, align 8
  br label %12

12:                                               ; preds = %32, %10
  %13 = load ptr, ptr %3, align 8
  %14 = icmp ne ptr %13, null
  br i1 %14, label %15, label %30

15:                                               ; preds = %12
  %16 = load ptr, ptr %3, align 8
  %17 = getelementptr inbounds %struct._zend_execute_data, ptr %16, i32 0, i32 3
  %18 = load ptr, ptr %17, align 8
  %19 = icmp ne ptr %18, null
  br i1 %19, label %20, label %28

20:                                               ; preds = %15
  %21 = load ptr, ptr %3, align 8
  %22 = getelementptr inbounds %struct._zend_execute_data, ptr %21, i32 0, i32 3
  %23 = load ptr, ptr %22, align 8
  %24 = load i8, ptr %23, align 8
  %25 = zext i8 %24 to i32
  %26 = icmp ne i32 %25, 1
  %27 = xor i1 %26, true
  br label %28

28:                                               ; preds = %20, %15
  %29 = phi i1 [ true, %15 ], [ %27, %20 ]
  br label %30

30:                                               ; preds = %28, %12
  %31 = phi i1 [ false, %12 ], [ %29, %28 ]
  br i1 %31, label %32, label %36

32:                                               ; preds = %30
  %33 = load ptr, ptr %3, align 8
  %34 = getelementptr inbounds %struct._zend_execute_data, ptr %33, i32 0, i32 5
  %35 = load ptr, ptr %34, align 8
  store ptr %35, ptr %3, align 8
  br label %12

36:                                               ; preds = %30
  %37 = load ptr, ptr %3, align 8
  %38 = icmp ne ptr %37, null
  br i1 %38, label %39, label %84

39:                                               ; preds = %36
  %40 = load ptr, ptr %3, align 8
  %41 = getelementptr inbounds %struct._zend_execute_data, ptr %40, i32 0, i32 0
  %42 = load ptr, ptr %41, align 8
  %43 = icmp ne ptr %42, null
  br i1 %43, label %53, label %44

44:                                               ; preds = %39
  %45 = load ptr, ptr %3, align 8
  %46 = getelementptr inbounds %struct._zend_execute_data, ptr %45, i32 0, i32 3
  %47 = load ptr, ptr %46, align 8
  %48 = getelementptr inbounds %struct._zend_op_array, ptr %47, i32 0, i32 16
  %49 = load ptr, ptr %48, align 8
  %50 = getelementptr inbounds %struct._zend_op, ptr %49, i64 0
  %51 = getelementptr inbounds %struct._zend_op, ptr %50, i32 0, i32 5
  %52 = load i32, ptr %51, align 8
  store i32 %52, ptr %1, align 4
  br label %85

53:                                               ; preds = %39
  %54 = load ptr, ptr getelementptr inbounds (%struct._zend_executor_globals, ptr @executor_globals, i32 0, i32 50), align 8
  %55 = icmp ne ptr %54, null
  br i1 %55, label %56, label %78

56:                                               ; preds = %53
  %57 = load ptr, ptr %3, align 8
  %58 = getelementptr inbounds %struct._zend_execute_data, ptr %57, i32 0, i32 0
  %59 = load ptr, ptr %58, align 8
  %60 = getelementptr inbounds %struct._zend_op, ptr %59, i32 0, i32 6
  %61 = load i8, ptr %60, align 4
  %62 = zext i8 %61 to i32
  %63 = icmp eq i32 %62, 149
  br i1 %63, label %64, label %78

64:                                               ; preds = %56
  %65 = load ptr, ptr %3, align 8
  %66 = getelementptr inbounds %struct._zend_execute_data, ptr %65, i32 0, i32 0
  %67 = load ptr, ptr %66, align 8
  %68 = getelementptr inbounds %struct._zend_op, ptr %67, i32 0, i32 5
  %69 = load i32, ptr %68, align 8
  %70 = icmp eq i32 %69, 0
  br i1 %70, label %71, label %78

71:                                               ; preds = %64
  %72 = load ptr, ptr getelementptr inbounds (%struct._zend_executor_globals, ptr @executor_globals, i32 0, i32 52), align 8
  %73 = icmp ne ptr %72, null
  br i1 %73, label %74, label %78

74:                                               ; preds = %71
  %75 = load ptr, ptr getelementptr inbounds (%struct._zend_executor_globals, ptr @executor_globals, i32 0, i32 52), align 8
  %76 = getelementptr inbounds %struct._zend_op, ptr %75, i32 0, i32 5
  %77 = load i32, ptr %76, align 8
  store i32 %77, ptr %1, align 4
  br label %85

78:                                               ; preds = %71, %64, %56, %53
  %79 = load ptr, ptr %3, align 8
  %80 = getelementptr inbounds %struct._zend_execute_data, ptr %79, i32 0, i32 0
  %81 = load ptr, ptr %80, align 8
  %82 = getelementptr inbounds %struct._zend_op, ptr %81, i32 0, i32 5
  %83 = load i32, ptr %82, align 8
  store i32 %83, ptr %1, align 4
  br label %85

84:                                               ; preds = %36
  store i32 0, ptr %1, align 4
  br label %85

85:                                               ; preds = %84, %78, %74, %44, %7
  %86 = load i32, ptr %1, align 4
  ret i32 %86
}