; Function Attrs: nofree norecurse nosync nounwind memory(read, inaccessiblemem: none) uwtable
define i32 @zend_get_executed_lineno() local_unnamed_addr #8 {
  %1 = load i64, ptr getelementptr inbounds (%struct._zend_executor_globals, ptr @executor_globals, i64 0, i32 76), align 8
  %.not = icmp eq i64 %1, -1
  br i1 %.not, label %.preheader, label %2

.preheader:                                       ; preds = %0
  %.027 = load ptr, ptr getelementptr inbounds (%struct._zend_executor_globals, ptr @executor_globals, i64 0, i32 17), align 8
  %.not2028 = icmp eq ptr %.027, null
  br i1 %.not2028, label %.critedge25, label %.lr.ph

2:                                                ; preds = %0
  %3 = trunc i64 %1 to i32
  br label %.critedge25

.lr.ph:                                           ; preds = %.preheader, %.critedge2
  %.029 = phi ptr [ %.0, %.critedge2 ], [ %.027, %.preheader ]
  %4 = getelementptr inbounds i8, ptr %.029, i64 24
  %5 = load ptr, ptr %4, align 8
  %.not21 = icmp eq ptr %5, null
  br i1 %.not21, label %.critedge2, label %6

6:                                                ; preds = %.lr.ph
  %7 = load i8, ptr %5, align 8
  %.not22 = icmp eq i8 %7, 1
  br i1 %.not22, label %.critedge2, label %.critedge

.critedge2:                                       ; preds = %.lr.ph, %6
  %8 = getelementptr inbounds i8, ptr %.029, i64 48
  %.0 = load ptr, ptr %8, align 8
  %.not20 = icmp eq ptr %.0, null
  br i1 %.not20, label %.critedge25, label %.lr.ph

.critedge:                                        ; preds = %6
  %9 = load ptr, ptr %.029, align 8
  %.not23 = icmp eq ptr %9, null
  br i1 %.not23, label %10, label %15

10:                                               ; preds = %.critedge
  %11 = getelementptr inbounds i8, ptr %5, i64 88
  %12 = load ptr, ptr %11, align 8
  %13 = getelementptr inbounds i8, ptr %12, i64 24
  %14 = load i32, ptr %13, align 8
  br label %.critedge25

15:                                               ; preds = %.critedge
  %16 = load ptr, ptr getelementptr inbounds (%struct._zend_executor_globals, ptr @executor_globals, i64 0, i32 50), align 8
  %.not24 = icmp eq ptr %16, null
  br i1 %.not24, label %30, label %17

17:                                               ; preds = %15
  %18 = getelementptr inbounds i8, ptr %9, i64 28
  %19 = load i8, ptr %18, align 4
  %20 = icmp eq i8 %19, -107
  br i1 %20, label %21, label %30

21:                                               ; preds = %17
  %22 = getelementptr inbounds i8, ptr %9, i64 24
  %23 = load i32, ptr %22, align 8
  %24 = icmp eq i32 %23, 0
  %25 = load ptr, ptr getelementptr inbounds (%struct._zend_executor_globals, ptr @executor_globals, i64 0, i32 52), align 8
  %26 = icmp ne ptr %25, null
  %or.cond = select i1 %24, i1 %26, i1 false
  br i1 %or.cond, label %27, label %30

27:                                               ; preds = %21
  %28 = getelementptr inbounds i8, ptr %25, i64 24
  %29 = load i32, ptr %28, align 8
  br label %.critedge25

30:                                               ; preds = %21, %17, %15
  %31 = getelementptr inbounds i8, ptr %9, i64 24
  %32 = load i32, ptr %31, align 8
  br label %.critedge25

.critedge25:                                      ; preds = %.critedge2, %.preheader, %30, %27, %10, %2
  %.015 = phi i32 [ %3, %2 ], [ %29, %27 ], [ %32, %30 ], [ %14, %10 ], [ 0, %.preheader ], [ 0, %.critedge2 ]
  ret i32 %.015
}